; Function Attrs: nounwind uwtable
define internal void @xpath_callbacks_entry_dtor(ptr nocapture noundef readonly %0) #0 {
  %2 = load ptr, ptr %0, align 8
  %3 = load ptr, ptr %2, align 8
  %4 = icmp ne ptr %3, null
  tail call void @llvm.assume(i1 %4)
  %5 = getelementptr inbounds i8, ptr %2, i64 24
  %6 = load ptr, ptr %5, align 8
  %.not = icmp eq ptr %6, null
  br i1 %.not, label %19, label %7

7:                                                ; preds = %1
  %8 = load i32, ptr %6, align 4
  %9 = icmp ne i32 %8, 0
  tail call void @llvm.assume(i1 %9)
  %10 = add i32 %8, -1
  store i32 %10, ptr %6, align 4
  %11 = icmp eq i32 %10, 0
  br i1 %11, label %12, label %13

12:                                               ; preds = %7
  tail call void @zend_objects_store_del(ptr noundef nonnull %6) #9
  br label %19

13:                                               ; preds = %7
  %14 = getelementptr inbounds i8, ptr %6, i64 4
  %15 = load i32, ptr %14, align 4
  %16 = and i32 %15, -1008
  %17 = icmp eq i32 %16, 0
  br i1 %17, label %18, label %19

18:                                               ; preds = %13
  tail call void @gc_possible_root(ptr noundef nonnull %6) #9
  br label %19

19:                                               ; preds = %12, %18, %13, %1
  tail call void @zend_release_fcall_info_cache(ptr noundef nonnull %2) #9
  %20 = getelementptr inbounds i8, ptr %2, i64 32
  %21 = load ptr, ptr %20, align 8
  %.not23 = icmp eq ptr %21, null
  br i1 %.not23, label %34, label %22

22:                                               ; preds = %19
  %23 = load i32, ptr %21, align 4
  %24 = icmp ne i32 %23, 0
  tail call void @llvm.assume(i1 %24)
  %25 = add i32 %23, -1
  store i32 %25, ptr %21, align 4
  %26 = icmp eq i32 %25, 0
  br i1 %26, label %27, label %28

27:                                               ; preds = %22
  tail call void @zend_objects_store_del(ptr noundef nonnull %21) #9
  br label %34

28:                                               ; preds = %22
  %29 = getelementptr inbounds i8, ptr %21, i64 4
  %30 = load i32, ptr %29, align 4
  %31 = and i32 %30, -1008
  %32 = icmp eq i32 %31, 0
  br i1 %32, label %33, label %34

33:                                               ; preds = %28
  tail call void @gc_possible_root(ptr noundef nonnull %21) #9
  br label %34

34:                                               ; preds = %27, %33, %28, %19
  tail call void @llvm.memcpy.p0.p0.i64(ptr noundef nonnull align 8 dereferenceable(40) %2, ptr noundef nonnull align 8 dereferenceable(40) @empty_fcall_info_cache, i64 40, i1 false)
  tail call void @_efree(ptr noundef nonnull %2) #9
  ret void
}